target datalayout = "e-m:e-p270:32:32-p271:32:32-p272:64:64-i64:64-i128:128-f80:128-n8:16:32:64-S128"
target triple = "x86_64-pc-linux-gnu"

%"class.zxing::qrcode::FinderPatternFinder" = type { i32, i32, i32, %"class.std::vector.0", %"class.zxing::Ref", %"class.std::vector.5", i8, %"class.zxing::Ref.10" }
%"class.std::vector.0" = type { %"struct.std::_Vector_base.1" }
%"struct.std::_Vector_base.1" = type { %"struct.std::_Vector_base<std::vector<zxing::qrcode::FinderPatternFinder::HorizontalCheckedResult>, std::allocator<std::vector<zxing::qrcode::FinderPatternFinder::HorizontalCheckedResult>>>::_Vector_impl" }
%"struct.std::_Vector_base<std::vector<zxing::qrcode::FinderPatternFinder::HorizontalCheckedResult>, std::allocator<std::vector<zxing::qrcode::FinderPatternFinder::HorizontalCheckedResult>>>::_Vector_impl" = type { %"struct.std::_Vector_base<std::vector<zxing::qrcode::FinderPatternFinder::HorizontalCheckedResult>, std::allocator<std::vector<zxing::qrcode::FinderPatternFinder::HorizontalCheckedResult>>>::_Vector_impl_data" }
%"struct.std::_Vector_base<std::vector<zxing::qrcode::FinderPatternFinder::HorizontalCheckedResult>, std::allocator<std::vector<zxing::qrcode::FinderPatternFinder::HorizontalCheckedResult>>>::_Vector_impl_data" = type { ptr, ptr, ptr }
%"class.zxing::Ref" = type { ptr }
%"class.std::vector.5" = type { %"struct.std::_Vector_base.6" }
%"struct.std::_Vector_base.6" = type { %"struct.std::_Vector_base<zxing::Ref<zxing::qrcode::FinderPattern>, std::allocator<zxing::Ref<zxing::qrcode::FinderPattern>>>::_Vector_impl" }
%"struct.std::_Vector_base<zxing::Ref<zxing::qrcode::FinderPattern>, std::allocator<zxing::Ref<zxing::qrcode::FinderPattern>>>::_Vector_impl" = type { %"struct.std::_Vector_base<zxing::Ref<zxing::qrcode::FinderPattern>, std::allocator<zxing::Ref<zxing::qrcode::FinderPattern>>>::_Vector_impl_data" }
%"struct.std::_Vector_base<zxing::Ref<zxing::qrcode::FinderPattern>, std::allocator<zxing::Ref<zxing::qrcode::FinderPattern>>>::_Vector_impl_data" = type { ptr, ptr, ptr }
%"class.zxing::Ref.10" = type { ptr }

@_ZN5zxing6qrcode19FinderPatternFinder8MIN_SKIPE = hidden global i32 1, align 4
@_ZN5zxing6qrcode19FinderPatternFinder11MAX_MODULESE = hidden global i32 177, align 4

; Function Attrs: mustprogress nounwind uwtable
define linkonce_odr noundef nonnull align 4 dereferenceable(4) ptr @_ZSt3minIiERKT_S2_S2_(ptr noundef nonnull align 4 dereferenceable(4) %0, ptr noundef nonnull align 4 dereferenceable(4) %1) #1 comdat {
  %3 = alloca ptr, align 8
  %4 = alloca ptr, align 8
  %5 = alloca ptr, align 8
  store ptr %0, ptr %4, align 8
  store ptr %1, ptr %5, align 8
  %6 = load ptr, ptr %5, align 8
  %7 = load i32, ptr %6, align 4
  %8 = load ptr, ptr %4, align 8
  %9 = load i32, ptr %8, align 4
  %10 = icmp slt i32 %7, %9
  br i1 %10, label %11, label %13

11:                                               ; preds = %2
  %12 = load ptr, ptr %5, align 8
  store ptr %12, ptr %3, align 8
  br label %15

13:                                               ; preds = %2
  %14 = load ptr, ptr %4, align 8
  store ptr %14, ptr %3, align 8
  br label %15

15:                                               ; preds = %13, %11
  %16 = load ptr, ptr %3, align 8
  ret ptr %16
}

; Function Attrs: mustprogress nounwind uwtable
define linkonce_odr hidden noundef ptr @_ZNK5zxing3RefINS_9BitMatrixEEptEv(ptr noundef nonnull align 8 dereferenceable(8) %0) #1 comdat align 2 {
  %2 = alloca ptr, align 8
  store ptr %0, ptr %2, align 8
  %3 = load ptr, ptr %2, align 8
  %4 = getelementptr inbounds %"class.zxing::Ref", ptr %3, i32 0, i32 0
  %5 = load ptr, ptr %4, align 8
  ret ptr %5
}

; Function Attrs: mustprogress uwtable
define hidden noundef i32 @_ZN5zxing6qrcode19FinderPatternFinder16getMinModuleSizeEv(ptr noundef nonnull align 8 dereferenceable(88) %0) #0 align 2 {
  %2 = alloca ptr, align 8
  %3 = alloca i32, align 4
  %4 = alloca i32, align 4
  %5 = alloca i32, align 4
  store ptr %0, ptr %2, align 8
  %6 = load ptr, ptr %2, align 8
  %7 = getelementptr inbounds %"class.zxing::qrcode::FinderPatternFinder", ptr %6, i32 0, i32 4
  %8 = call noundef ptr @_ZNK5zxing3RefINS_9BitMatrixEEptEv(ptr noundef nonnull align 8 dereferenceable(8) %7)
  %9 = call noundef i32 @_ZNK5zxing9BitMatrix8getWidthEv(ptr noundef nonnull align 8 dereferenceable(346) %8)
  store i32 %9, ptr %4, align 4
  %10 = getelementptr inbounds %"class.zxing::qrcode::FinderPatternFinder", ptr %6, i32 0, i32 4
  %11 = call noundef ptr @_ZNK5zxing3RefINS_9BitMatrixEEptEv(ptr noundef nonnull align 8 dereferenceable(8) %10)
  %12 = call noundef i32 @_ZNK5zxing9BitMatrix9getHeightEv(ptr noundef nonnull align 8 dereferenceable(346) %11)
  store i32 %12, ptr %5, align 4
  %13 = call noundef nonnull align 4 dereferenceable(4) ptr @_ZSt3minIiERKT_S2_S2_(ptr noundef nonnull align 4 dereferenceable(4) %4, ptr noundef nonnull align 4 dereferenceable(4) %5)
  %14 = load i32, ptr %13, align 4
  %15 = mul nsw i32 3, %14
  %16 = load i32, ptr @_ZN5zxing6qrcode19FinderPatternFinder11MAX_MODULESE, align 4
  %17 = mul nsw i32 4, %16
  %18 = sdiv i32 %15, %17
  store i32 %18, ptr %3, align 4
  %19 = load i32, ptr %3, align 4
  %20 = load i32, ptr @_ZN5zxing6qrcode19FinderPatternFinder8MIN_SKIPE, align 4
  %21 = icmp slt i32 %19, %20
  br i1 %21, label %22, label %24

22:                                               ; preds = %1
  %23 = load i32, ptr @_ZN5zxing6qrcode19FinderPatternFinder8MIN_SKIPE, align 4
  store i32 %23, ptr %3, align 4
  br label %24

24:                                               ; preds = %22, %1
  %25 = load i32, ptr %3, align 4
  ret i32 %25
}