; Function Attrs: mustprogress uwtable
define hidden noundef i32 @_ZN5zxing6qrcode19FinderPatternFinder16getMinModuleSizeEv(ptr nocapture noundef nonnull readonly align 8 dereferenceable(88) %0) local_unnamed_addr #0 align 2 {
  %2 = getelementptr inbounds i8, ptr %0, i64 40
  %3 = load ptr, ptr %2, align 8
  %4 = tail call noundef i32 @_ZNK5zxing9BitMatrix8getWidthEv(ptr noundef nonnull align 8 dereferenceable(346) %3)
  %5 = load ptr, ptr %2, align 8
  %6 = tail call noundef i32 @_ZNK5zxing9BitMatrix9getHeightEv(ptr noundef nonnull align 8 dereferenceable(346) %5)
  %.sroa.speculated = tail call i32 @llvm.smin.i32(i32 %6, i32 %4)
  %7 = mul nsw i32 %.sroa.speculated, 3
  %8 = load i32, ptr @_ZN5zxing6qrcode19FinderPatternFinder11MAX_MODULESE, align 4
  %9 = shl nsw i32 %8, 2
  %10 = sdiv i32 %7, %9
  %11 = load i32, ptr @_ZN5zxing6qrcode19FinderPatternFinder8MIN_SKIPE, align 4
  %spec.select = tail call i32 @llvm.smax.i32(i32 %10, i32 %11)
  ret i32 %spec.select
}